target datalayout = "e-m:e-p270:32:32-p271:32:32-p272:64:64-i64:64-i128:128-f80:128-n8:16:32:64-S128"
target triple = "x86_64-pc-linux-gnu"

; Function Attrs: mustprogress nounwind uwtable
define void @_Z13gmx_mat4_mmulPA4_fS0_S0_(ptr noundef %0, ptr noundef %1, ptr noundef %2) #0 {
  %4 = alloca ptr, align 8
  %5 = alloca ptr, align 8
  %6 = alloca ptr, align 8
  %7 = alloca i32, align 4
  %8 = alloca i32, align 4
  %9 = alloca i32, align 4
  store ptr %0, ptr %4, align 8
  store ptr %1, ptr %5, align 8
  store ptr %2, ptr %6, align 8
  store i32 0, ptr %7, align 4
  br label %10

10:                                               ; preds = %62, %3
  %11 = load i32, ptr %7, align 4
  %12 = icmp slt i32 %11, 4
  br i1 %12, label %13, label %65

13:                                               ; preds = %10
  store i32 0, ptr %8, align 4
  br label %14

14:                                               ; preds = %58, %13
  %15 = load i32, ptr %8, align 4
  %16 = icmp slt i32 %15, 4
  br i1 %16, label %17, label %61

17:                                               ; preds = %14
  %18 = load ptr, ptr %4, align 8
  %19 = load i32, ptr %7, align 4
  %20 = sext i32 %19 to i64
  %21 = getelementptr inbounds [4 x float], ptr %18, i64 %20
  %22 = load i32, ptr %8, align 4
  %23 = sext i32 %22 to i64
  %24 = getelementptr inbounds [4 x float], ptr %21, i64 0, i64 %23
  store float 0.000000e+00, ptr %24, align 4
  store i32 0, ptr %9, align 4
  br label %25

25:                                               ; preds = %54, %17
  %26 = load i32, ptr %9, align 4
  %27 = icmp slt i32 %26, 4
  br i1 %27, label %28, label %57

28:                                               ; preds = %25
  %29 = load ptr, ptr %5, align 8
  %30 = load i32, ptr %7, align 4
  %31 = sext i32 %30 to i64
  %32 = getelementptr inbounds [4 x float], ptr %29, i64 %31
  %33 = load i32, ptr %9, align 4
  %34 = sext i32 %33 to i64
  %35 = getelementptr inbounds [4 x float], ptr %32, i64 0, i64 %34
  %36 = load float, ptr %35, align 4
  %37 = load ptr, ptr %6, align 8
  %38 = load i32, ptr %9, align 4
  %39 = sext i32 %38 to i64
  %40 = getelementptr inbounds [4 x float], ptr %37, i64 %39
  %41 = load i32, ptr %8, align 4
  %42 = sext i32 %41 to i64
  %43 = getelementptr inbounds [4 x float], ptr %40, i64 0, i64 %42
  %44 = load float, ptr %43, align 4
  %45 = load ptr, ptr %4, align 8
  %46 = load i32, ptr %7, align 4
  %47 = sext i32 %46 to i64
  %48 = getelementptr inbounds [4 x float], ptr %45, i64 %47
  %49 = load i32, ptr %8, align 4
  %50 = sext i32 %49 to i64
  %51 = getelementptr inbounds [4 x float], ptr %48, i64 0, i64 %50
  %52 = load float, ptr %51, align 4
  %53 = call float @llvm.fmuladd.f32(float %36, float %44, float %52)
  store float %53, ptr %51, align 4
  br label %54

54:                                               ; preds = %28
  %55 = load i32, ptr %9, align 4
  %56 = add nsw i32 %55, 1
  store i32 %56, ptr %9, align 4
  br label %25, !llvm.loop !9

57:                                               ; preds = %25
  br label %58

58:                                               ; preds = %57
  %59 = load i32, ptr %8, align 4
  %60 = add nsw i32 %59, 1
  store i32 %60, ptr %8, align 4
  br label %14, !llvm.loop !10

61:                                               ; preds = %14
  br label %62

62:                                               ; preds = %61
  %63 = load i32, ptr %7, align 4
  %64 = add nsw i32 %63, 1
  store i32 %64, ptr %7, align 4
  br label %10, !llvm.loop !11

65:                                               ; preds = %10
  ret void
}