; Function Attrs: mustprogress nofree norecurse nosync nounwind memory(argmem: readwrite) uwtable
define void @_Z13gmx_mat4_mmulPA4_fS0_S0_(ptr nocapture noundef writeonly %0, ptr nocapture noundef readonly %1, ptr nocapture noundef readonly %2) local_unnamed_addr #0 {
  br label %.preheader

.preheader:                                       ; preds = %3, %14
  %indvars.iv27 = phi i64 [ 0, %3 ], [ %indvars.iv.next28, %14 ]
  br label %4

4:                                                ; preds = %.preheader, %13
  %indvars.iv23 = phi i64 [ 0, %.preheader ], [ %indvars.iv.next24, %13 ]
  %5 = getelementptr inbounds [4 x float], ptr %0, i64 %indvars.iv27, i64 %indvars.iv23
  store float 0.000000e+00, ptr %5, align 4
  br label %6

6:                                                ; preds = %4, %6
  %indvars.iv = phi i64 [ 0, %4 ], [ %indvars.iv.next, %6 ]
  %7 = phi float [ 0.000000e+00, %4 ], [ %12, %6 ]
  %8 = getelementptr inbounds [4 x float], ptr %1, i64 %indvars.iv27, i64 %indvars.iv
  %9 = load float, ptr %8, align 4
  %10 = getelementptr inbounds [4 x float], ptr %2, i64 %indvars.iv, i64 %indvars.iv23
  %11 = load float, ptr %10, align 4
  %12 = tail call float @llvm.fmuladd.f32(float %9, float %11, float %7)
  store float %12, ptr %5, align 4
  %indvars.iv.next = add nuw nsw i64 %indvars.iv, 1
  %exitcond.not = icmp eq i64 %indvars.iv.next, 4
  br i1 %exitcond.not, label %13, label %6, !llvm.loop !9

13:                                               ; preds = %6
  %indvars.iv.next24 = add nuw nsw i64 %indvars.iv23, 1
  %exitcond26.not = icmp eq i64 %indvars.iv.next24, 4
  br i1 %exitcond26.not, label %14, label %4, !llvm.loop !10

14:                                               ; preds = %13
  %indvars.iv.next28 = add nuw nsw i64 %indvars.iv27, 1
  %exitcond30.not = icmp eq i64 %indvars.iv.next28, 4
  br i1 %exitcond30.not, label %15, label %.preheader, !llvm.loop !11

15:                                               ; preds = %14
  ret void
}